{
   Logger_MPMC_Queue_False_Positive_OSX
   Memcheck:Cond
   fun:_ZN5boost8lockfree5queueIN4werk10LogMessageENS0_8capacityILm2048EEENS_9parameter5void_ES7_E7do_pushILb0EEEbRKS3_
}
{
   Logger_MPMC_Queue_False_Positive_Linux1
   Memcheck:Cond
   fun:_ZN4werk8AsyncLog6logRawENS_8LogLevelEPKc
}
{
   Logger_MPMC_Queue_False_Positive_Linux2
   Memcheck:Cond
   fun:_ZN4werk8AsyncLog3logENS_8LogLevelEPKcz
}
{
   Logger_MPMC_Queue_False_Positive_Linux3
   Memcheck:Cond
   fun:_ZNV5boost7atomics6detail11base_atomicINS_8lockfree6detail12tagged_indexEvLj4ELb0EE23compare_exchange_strongERS5_RKS5_NS_12memory_orderESA_
   fun:_ZNV5boost7atomics6detail11base_atomicINS_8lockfree6detail12tagged_indexEvLj4ELb0EE21compare_exchange_weakERS5_RKS5_NS_12memory_orderESA_
   fun:_ZNV5boost7atomics6detail11base_atomicINS_8lockfree6detail12tagged_indexEvLj4ELb0EE21compare_exchange_weakERS5_S5_NS_12memory_orderE
   fun:_ZN5boost8lockfree5queueIN4werk10LogMessageENS0_8capacityILm2048EEENS_9parameter5void_ES7_E7do_pushILb0EEEbRKS3_
   fun:_ZN5boost8lockfree5queueIN4werk10LogMessageENS0_8capacityILm2048EEENS_9parameter5void_ES7_E4pushERKS3_
   fun:_ZN4werk8AsyncLog6logRawENS_8LogLevelEPKc
}
{
   Logger_MPMC_Queue_False_Positive_Linux4
   Memcheck:Cond
   fun:_ZNV5boost7atomics6detail11base_atomicINS_8lockfree6detail12tagged_indexEvLj4ELb0EE23compare_exchange_strongERS5_RKS5_NS_12memory_orderESA_
   fun:_ZNV5boost7atomics6detail11base_atomicINS_8lockfree6detail12tagged_indexEvLj4ELb0EE21compare_exchange_weakERS5_RKS5_NS_12memory_orderESA_
   fun:_ZNV5boost7atomics6detail11base_atomicINS_8lockfree6detail12tagged_indexEvLj4ELb0EE21compare_exchange_weakERS5_S5_NS_12memory_orderE
   fun:_ZN5boost8lockfree5queueIN4werk10LogMessageENS0_8capacityILm2048EEENS_9parameter5void_ES7_E7do_pushILb0EEEbRKS3_
   fun:_ZN5boost8lockfree5queueIN4werk10LogMessageENS0_8capacityILm2048EEENS_9parameter5void_ES7_E4pushERKS3_
   fun:_ZN4werk8AsyncLog3logENS_8LogLevelEPKcz
}
{
   Logger_MPMC_Queue_False_Positive_Linux5
   Memcheck:Cond
   fun:_ZN5boost8lockfree5queueIN4werk10LogMessageENS0_8capacityILm2048EEENS_9parameter5void_ES7_E7do_pushILb0EEEbRKS3_
   fun:_ZN5boost8lockfree5queueIN4werk10LogMessageENS0_8capacityILm2048EEENS_9parameter5void_ES7_E4pushERKS3_
   fun:_ZN4werk8AsyncLog6logRawENS_8LogLevelEPKc
}
{
   Logger_MPMC_Queue_False_Positive_Linux6
   Memcheck:Cond
   fun:_ZNSt6atomicIN5boost8lockfree6detail12tagged_indexEE21compare_exchange_weakERS3_S3_St12memory_orderS6_
   fun:_ZNSt6atomicIN5boost8lockfree6detail12tagged_indexEE21compare_exchange_weakERS3_S3_St12memory_order
   fun:_ZN5boost8lockfree5queueIN4werk10LogMessageEJNS0_8capacityILm2048EEEEE7do_pushILb0EEEbRKS3_
   fun:_ZN5boost8lockfree5queueIN4werk10LogMessageEJNS0_8capacityILm2048EEEEE4pushERKS3_
   fun:_ZN4werk8AsyncLog6logRawENS_8LogLevelEPKc
   fun:_ZN11LoggingTest12TestAsyncLog11test_methodEv
   fun:_ZN11LoggingTestL20TestAsyncLog_invokerEv
   fun:_ZN5boost6detail8function22void_function_invoker0IPFvvEvE6invokeERNS1_15function_bufferE
   fun:_ZNK5boost9function0IvEclEv
   fun:_ZN5boost6detail7forwardclEv
   fun:_ZN5boost6detail8function21function_obj_invoker0INS0_7forwardEiE6invokeERNS1_15function_bufferE
   fun:_ZNK5boost9function0IiEclEv
}
{
   Logger_MPMC_Queue_False_Positive_Linux7
   Memcheck:Cond
   fun:_ZN5boost8lockfree5queueIN4werk10LogMessageEJNS0_8capacityILm2048EEEEE7do_pushILb0EEEbRKS3_
   fun:_ZN5boost8lockfree5queueIN4werk10LogMessageEJNS0_8capacityILm2048EEEEE4pushERKS3_
   fun:_ZN4werk8AsyncLog6logRawENS_8LogLevelEPKc
   fun:_ZN11LoggingTest12TestAsyncLog11test_methodEv
   fun:_ZN11LoggingTestL20TestAsyncLog_invokerEv
   fun:_ZN5boost6detail8function22void_function_invoker0IPFvvEvE6invokeERNS1_15function_bufferE
   fun:_ZNK5boost9function0IvEclEv
   fun:_ZN5boost6detail7forwardclEv
   fun:_ZN5boost6detail8function21function_obj_invoker0INS0_7forwardEiE6invokeERNS1_15function_bufferE
   fun:_ZNK5boost9function0IiEclEv
   fun:_ZN5boost6detail9do_invokeINS_10shared_ptrINS0_22translator_holder_baseEEENS_8functionIFivEEEEEiRKT_RKT0_
   fun:_ZN5boost17execution_monitor13catch_signalsERKNS_8functionIFivEEE
}
{
   Logger_MPMC_Queue_False_Positive_Linux8
   Memcheck:Cond
   fun:_ZN5boost8lockfree5queueIN4werk10LogMessageEJNS0_8capacityILm2048EEEEE7do_pushILb0EEEbRKS3_
   fun:_ZN5boost8lockfree5queueIN4werk10LogMessageEJNS0_8capacityILm2048EEEEE4pushERKS3_
   fun:_ZN4werk8AsyncLog3logENS_8LogLevelEPKcz
   fun:_ZN11LoggingTest12TestAsyncLog11test_methodEv
   fun:_ZN11LoggingTestL20TestAsyncLog_invokerEv
   fun:_ZN5boost6detail8function22void_function_invoker0IPFvvEvE6invokeERNS1_15function_bufferE
   fun:_ZNK5boost9function0IvEclEv
   fun:_ZN5boost6detail7forwardclEv
   fun:_ZN5boost6detail8function21function_obj_invoker0INS0_7forwardEiE6invokeERNS1_15function_bufferE
   fun:_ZNK5boost9function0IiEclEv
   fun:_ZN5boost6detail9do_invokeINS_10shared_ptrINS0_22translator_holder_baseEEENS_8functionIFivEEEEEiRKT_RKT0_
   fun:_ZN5boost17execution_monitor13catch_signalsERKNS_8functionIFivEEE
}